(lp1
S'F0'
p2
aS'F1'
p3
aS'F2'
p4
aS'F3'
p5
aS'F4'
p6
aS'F5'
p7
aS'F6'
p8
aS'F7'
p9
aS'F8'
p10
aS'F9'
p11
a.(lp1
S'H0'
p2
aS'H1'
p3
aS'H2'
p4
aS'H3'
p5
a.(lp1
S'C0'
p2
aS'C1'
p3
aS'C2'
p4
aS'C3'
p5
aS'C4'
p6
aS'C5'
p7
aS'C6'
p8
aS'C7'
p9
aS'C8'
p10
aS'C9'
p11
a.(lp1
S'S0'
p2
aS'S1'
p3
aS'S2'
p4
aS'S3'
p5
aS'S4'
p6
aS'S5'
p7
aS'S6'
p8
aS'S7'
p9
aS'S8'
p10
aS'S9'
p11
aS'S10'
p12
aS'S11'
p13
aS'S12'
p14
aS'S13'
p15
aS'S14'
p16
a.(dp1
(S'H0'
p2
S'C4'
p3
tp4
F3.451944578474972
s(S'F4'
p5
g2
tp6
F13.195799140957572
s(S'H1'
p7
S'C5'
p8
tp9
F2.1215300004954285
s(S'F5'
p10
g7
tp11
F12.071064458487726
s(S'F6'
p12
g7
tp13
F11.610828040344671
s(S'F9'
p14
S'H2'
p15
tp16
F12.571538736207859
s(g15
S'C7'
p17
tp18
F2.6018775892304511
s(g2
S'C8'
p19
tp20
F5.4511857760610054
s(g15
S'C2'
p21
tp22
F5.2403932528106996
s(S'F2'
p23
g2
tp24
F14.311489817254438
s(S'F8'
p25
S'H3'
p26
tp27
F19.667920350504623
s(g2
S'C3'
p28
tp29
F3.4054266915594882
s(g7
S'C1'
p30
tp31
F7.1450283798115812
s(S'F3'
p32
g26
tp33
F12.300088140673008
s(S'F1'
p34
g26
tp35
F19.795113987591506
s(g26
g3
tp36
F2.1624739239462434
s(S'F0'
p37
g15
tp38
F14.151100047370669
s(g2
g17
tp39
F9.2014964539705488
s(g5
g7
tp40
F18.370313353306969
s(S'F7'
p41
g26
tp42
F15.512500278209185
s(g26
S'C0'
p43
tp44
F7.3532591174270001
s(g10
g2
tp45
F16.769890829516655
s(g12
g15
tp46
F15.262335645840697
s(g15
g30
tp47
F6.5138882777837841
s(g23
g7
tp48
F10.512978485489796
s(g25
g2
tp49
F17.911977309593468
s(g2
g21
tp50
F2.338948766996781
s(g7
S'C6'
p51
tp52
F4.2917390019357091
s(g32
g15
tp53
F15.774544780734457
s(g34
g15
tp54
F10.278527958264865
s(g14
g7
tp55
F11.463038819553372
s(g26
g8
tp56
F8.1527133763345141
s(g15
S'C9'
p57
tp58
F9.1133896272740937
s(g37
g26
tp59
F10.36862494555853
s(g15
g51
tp60
F4.2285626822410354
s(g2
g51
tp61
F5.6763796436523322
s(g7
g21
tp62
F8.5039614746387784
s(g41
g15
tp63
F16.540310491049812
s(g26
g28
tp64
F3.9161017893012939
s(g26
g30
tp65
F3.8994139964049275
s(g10
g26
tp66
F16.115361024999459
s(g12
g26
tp67
F12.633501567637138
s(g15
g43
tp68
F3.6602275844894603
s(g15
g3
tp69
F2.0622621416737754
s(g5
g15
tp70
F18.341178980641679
s(g23
g15
tp71
F19.008705095786027
s(g25
g7
tp72
F12.441559443850739
s(g7
g17
tp73
F6.7970684547887474
s(g32
g7
tp74
F13.775808495804556
s(g14
g2
tp75
F17.493188895648284
s(g26
g51
tp76
F7.4553016891259647
s(g15
g19
tp77
F6.7024866050392848
s(g15
g28
tp78
F8.3441842805368722
s(g37
g2
tp79
F16.418881474026687
s(g2
g30
tp80
F6.96455789419102
s(g7
g28
tp81
F9.5532030406801915
s(g41
g7
tp82
F14.876076662619198
s(g34
g7
tp83
F14.239263446751888
s(g7
g19
tp84
F3.9285758551956684
s(g10
g15
tp85
F19.764475674646803
s(g26
g57
tp86
F9.8487419836635688
s(g2
g8
tp87
F5.7093592621241358
s(g5
g26
tp88
F16.893867067133385
s(g26
g21
tp89
F5.0191932892648303
s(g23
g26
tp90
F14.540589962338839
s(g15
g8
tp91
F4.0994581552111748
s(g7
g3
tp92
F9.0648723150484258
s(g32
g2
tp93
F14.324322185949704
s(g12
g2
tp94
F18.12176724720355
s(g14
g26
tp95
F10.761315506989696
s(g26
g17
tp96
F2.3380032094614505
s(g2
g57
tp97
F6.8488553902592022
s(g37
g7
tp98
F15.394944206908761
s(g25
g15
tp99
F19.730885781901108
s(g2
g43
tp100
F2.7808402970021895
s(g7
g43
tp101
F3.3587317340228973
s(g41
g2
tp102
F18.896098834878572
s(g34
g2
tp103
F18.146841766393091
s(g26
g19
tp104
F2.1744662945568454
s(g7
g57
tp105
F9.3835794075875967
s.(dp1
S'F0'
p2
I66
sS'F1'
p3
I63
sS'F2'
p4
I90
sS'F3'
p5
I73
sS'F4'
p6
I41
sS'F5'
p7
I55
sS'F6'
p8
I94
sS'F7'
p9
I99
sS'F8'
p10
I75
sS'F9'
p11
I95
s.(dp1
(S'H0'
p2
S'C4'
p3
tp4
I11
s(S'F4'
p5
g2
tp6
I11
s(S'H1'
p7
S'C5'
p8
tp9
I16
s(S'F5'
p10
g7
tp11
I8
s(S'F6'
p12
g7
tp13
I18
s(S'F9'
p14
S'H2'
p15
tp16
I12
s(g15
S'C7'
p17
tp18
I14
s(g2
S'C8'
p19
tp20
I15
s(g15
S'C2'
p21
tp22
I7
s(S'F2'
p23
g2
tp24
I16
s(S'F8'
p25
S'H3'
p26
tp27
I22
s(g2
S'C3'
p28
tp29
I9
s(g7
S'C1'
p30
tp31
I18
s(S'F3'
p32
g26
tp33
I21
s(S'F1'
p34
g26
tp35
I5
s(g26
g3
tp36
I11
s(S'F0'
p37
g15
tp38
I18
s(g2
g17
tp39
I22
s(g5
g7
tp40
I9
s(S'F7'
p41
g26
tp42
I29
s(g26
S'C0'
p43
tp44
I10
s(g10
g2
tp45
I6
s(g12
g15
tp46
I8
s(g15
g30
tp47
I8
s(g23
g7
tp48
I15
s(g25
g2
tp49
I6
s(g2
g21
tp50
I21
s(g7
S'C6'
p51
tp52
I9
s(g32
g15
tp53
I10
s(g34
g15
tp54
I12
s(g14
g7
tp55
I19
s(g26
g8
tp56
I14
s(g15
S'C9'
p57
tp58
I12
s(g37
g26
tp59
I17
s(g15
g51
tp60
I7
s(g2
g51
tp61
I21
s(g7
g21
tp62
I11
s(g41
g15
tp63
I9
s(g26
g28
tp64
I8
s(g26
g30
tp65
I17
s(g10
g26
tp66
I10
s(g12
g26
tp67
I9
s(g15
g43
tp68
I15
s(g15
g3
tp69
I15
s(g5
g15
tp70
I4
s(g23
g15
tp71
I22
s(g25
g7
tp72
I11
s(g7
g17
tp73
I7
s(g32
g7
tp74
I16
s(g14
g2
tp75
I23
s(g26
g51
tp76
I11
s(g15
g19
tp77
I13
s(g15
g28
tp78
I10
s(g37
g2
tp79
I11
s(g2
g30
tp80
I20
s(g7
g28
tp81
I7
s(g41
g7
tp82
I5
s(g34
g7
tp83
I14
s(g7
g19
tp84
I13
s(g10
g15
tp85
I9
s(g26
g57
tp86
I10
s(g2
g8
tp87
I14
s(g5
g26
tp88
I10
s(g26
g21
tp89
I16
s(g23
g26
tp90
I4
s(g15
g8
tp91
I10
s(g7
g3
tp92
I15
s(g32
g2
tp93
I19
s(g12
g2
tp94
I24
s(g14
g26
tp95
I9
s(g26
g17
tp96
I19
s(g2
g57
tp97
I14
s(g37
g7
tp98
I13
s(g25
g15
tp99
I4
s(g2
g43
tp100
I22
s(g7
g43
tp101
I8
s(g41
g2
tp102
I27
s(g34
g2
tp103
I15
s(g26
g19
tp104
I20
s(g7
g57
tp105
I9
s.(dp1
S'C9'
p2
F32.06336606993829
sS'C8'
p3
F39.090861232548349
sS'C3'
p4
F42.672862030431538
sS'C2'
p5
F36.871095822374627
sS'C1'
p6
F40.156160923860867
sS'C0'
p7
F42.977184934847784
sS'C7'
p8
F26.93140963083361
sS'C6'
p9
F28.227536617171751
sS'C5'
p10
F21.821894891859866
sS'C4'
p11
F29.863513773797973
s.(dp1
(S'C8'
p2
S'S13'
p3
tp4
I54
s(S'C5'
p5
S'S4'
p6
tp7
I0
s(S'C7'
p8
S'S0'
p9
tp10
I0
s(S'C4'
p11
S'S5'
p12
tp13
I37
s(g5
S'S9'
p14
tp15
I0
s(S'C6'
p16
S'S1'
p17
tp18
I32
s(S'C1'
p19
S'S12'
p20
tp21
I300
s(g2
S'S7'
p22
tp23
I0
s(S'C3'
p24
g22
tp25
I14
s(S'C0'
p26
g20
tp27
I15
s(S'C9'
p28
g9
tp29
I11
s(S'C2'
p30
S'S2'
p31
tp32
I57
s(g11
S'S11'
p33
tp34
I0
s(g19
g12
tp35
I70
s(g26
g6
tp36
I41
s(g5
S'S3'
p37
tp38
I0
s(g8
g37
tp39
I63
s(g11
S'S6'
p40
tp41
I52
s(g16
g40
tp42
I22
s(g19
g33
tp43
I26
s(g2
g9
tp44
I71
s(g24
g31
tp45
I26
s(g28
g22
tp46
I100
s(g11
g20
tp47
I25
s(g16
g20
tp48
I45
s(g19
S'S8'
p49
tp50
I0
s(g8
g14
tp51
I275
s(g26
g17
tp52
I140
s(g16
g49
tp53
I260
s(g8
g40
tp54
I0
s(g28
g3
tp55
I80
s(g30
g3
tp56
I65
s(g19
S'S14'
p57
tp58
I195
s(g28
g14
tp59
I20
s(g5
g20
tp60
I0
s(g8
g20
tp61
I25
s(g19
g31
tp62
I0
s(g26
g31
tp63
I0
s(g24
g33
tp64
I22
s(g11
g17
tp65
I18
s(g30
S'S10'
p66
tp67
I34
s(g2
g66
tp68
I54
s(g30
g40
tp69
I63
s(g24
g49
tp70
I40
s(g5
g33
tp71
I31
s(g19
g17
tp72
I29
s(g30
g14
tp73
I0
s(g16
g57
tp74
I24
s(g26
g49
tp75
I47
s(g5
g22
tp76
I140
s(g11
g31
tp77
I51
s(g5
g49
tp78
I300
s(g16
g31
tp79
I42
s(g2
g6
tp80
I32
s(g24
g40
tp81
I35
s(g26
g3
tp82
I0
s(g28
g37
tp83
I265
s(g30
g37
tp84
I0
s(g19
g6
tp85
I16
s(g26
g12
tp86
I120
s(g5
g31
tp87
I260
s(g8
g31
tp88
I22
s(g11
g22
tp89
I0
s(g16
g22
tp90
I29
s(g19
g66
tp91
I0
s(g2
g17
tp92
I0
s(g24
g17
tp93
I0
s(g28
g40
tp94
I15
s(g30
g9
tp95
I55
s(g11
g3
tp96
I16
s(g16
g3
tp97
I57
s(g8
g49
tp98
I65
s(g26
g40
tp99
I0
s(g5
g17
tp100
I47
s(g16
g14
tp101
I50
s(g8
g12
tp102
I69
s(g28
g20
tp103
I53
s(g30
g57
tp104
I0
s(g11
g49
tp105
I28
s(g16
g6
tp106
I0
s(g2
g31
tp107
I31
s(g28
g49
tp108
I31
s(g8
g33
tp109
I70
s(g28
g12
tp110
I46
s(g11
g57
tp111
I18
s(g16
g66
tp112
I40
s(g2
g57
tp113
I26
s(g26
g37
tp114
I26
s(g24
g66
tp115
I28
s(g2
g33
tp116
I54
s(g28
g33
tp117
I52
s(g30
g33
tp118
I190
s(g30
g22
tp119
I19
s(g5
g66
tp120
I27
s(g8
g57
tp121
I59
s(g19
g9
tp122
I155
s(g26
g14
tp123
I0
s(g5
g40
tp124
I0
s(g24
g3
tp125
I19
s(g11
g37
tp126
I0
s(g16
g37
tp127
I27
s(g28
g57
tp128
I49
s(g2
g12
tp129
I0
s(g24
g12
tp130
I36
s(g26
g66
tp131
I42
s(g28
g31
tp132
I0
s(g30
g6
tp133
I51
s(g19
g22
tp134
I0
s(g2
g20
tp135
I23
s(g5
g12
tp136
I240
s(g8
g17
tp137
I68
s(g11
g6
tp138
I0
s(g16
g9
tp139
I0
s(g19
g3
tp140
I23
s(g2
g40
tp141
I0
s(g24
g9
tp142
I135
s(g28
g17
tp143
I260
s(g30
g17
tp144
I62
s(g11
g66
tp145
I0
s(g26
g22
tp146
I55
s(g24
g57
tp147
I70
s(g5
g9
tp148
I30
s(g8
g6
tp149
I26
s(g11
g14
tp150
I210
s(g16
g12
tp151
I11
s(g2
g37
tp152
I57
s(g24
g37
tp153
I16
s(g5
g57
tp154
I60
s(g8
g66
tp155
I71
s(g28
g6
tp156
I18
s(g16
g33
tp157
I135
s(g2
g14
tp158
I35
s(g19
g14
tp159
I19
s(g26
g9
tp160
I28
s(g8
g22
tp161
I215
s(g28
g66
tp162
I16
s(g30
g20
tp163
I37
s(g26
g57
tp164
I13
s(g5
g3
tp165
I34
s(g8
g3
tp166
I53
s(g19
g37
tp167
I48
s(g24
g20
tp168
I75
s(g11
g9
tp169
I0
s(g24
g6
tp170
I37
s(g26
g33
tp171
I53
s(g30
g12
tp172
I285
s(g24
g14
tp173
I85
s(g19
g40
tp174
I54
s(g30
g49
tp175
I280
s(g2
g49
tp176
I57
s.